target datalayout = "e-m:e-p270:32:32-p271:32:32-p272:64:64-i64:64-i128:128-f80:128-n8:16:32:64-S128"
target triple = "x86_64-unknown-linux-gnu"

%"class.EA::StdC::CallbackManager::CallbackVector" = type { ptr, ptr, ptr, [8 x ptr] }

; Function Attrs: mustprogress nounwind uwtable
define dso_local void @_ZN2EA4StdC15CallbackManager14CallbackVectorC2Ev(ptr noundef nonnull align 8 dereferenceable(88) %this) unnamed_addr #1 align 2 {
entry:
  %this.addr = alloca ptr, align 8
  store ptr %this, ptr %this.addr, align 8
  %this1 = load ptr, ptr %this.addr, align 8
  %mpBegin = getelementptr inbounds %"class.EA::StdC::CallbackManager::CallbackVector", ptr %this1, i32 0, i32 0
  %mLocalBuffer = getelementptr inbounds %"class.EA::StdC::CallbackManager::CallbackVector", ptr %this1, i32 0, i32 3
  %arraydecay = getelementptr inbounds [8 x ptr], ptr %mLocalBuffer, i64 0, i64 0
  store ptr %arraydecay, ptr %mpBegin, align 8
  %mpEnd = getelementptr inbounds %"class.EA::StdC::CallbackManager::CallbackVector", ptr %this1, i32 0, i32 1
  %mLocalBuffer2 = getelementptr inbounds %"class.EA::StdC::CallbackManager::CallbackVector", ptr %this1, i32 0, i32 3
  %arraydecay3 = getelementptr inbounds [8 x ptr], ptr %mLocalBuffer2, i64 0, i64 0
  store ptr %arraydecay3, ptr %mpEnd, align 8
  %mpCapacity = getelementptr inbounds %"class.EA::StdC::CallbackManager::CallbackVector", ptr %this1, i32 0, i32 2
  %mLocalBuffer4 = getelementptr inbounds %"class.EA::StdC::CallbackManager::CallbackVector", ptr %this1, i32 0, i32 3
  %arraydecay5 = getelementptr inbounds [8 x ptr], ptr %mLocalBuffer4, i64 0, i64 0
  %add.ptr = getelementptr inbounds ptr, ptr %arraydecay5, i64 8
  store ptr %add.ptr, ptr %mpCapacity, align 8
  ret void
}