; Function Attrs: mustprogress nofree norecurse nosync nounwind willreturn memory(argmem: write) uwtable
define dso_local void @_ZN2EA4StdC15CallbackManager14CallbackVectorC2Ev(ptr noundef nonnull align 8 dereferenceable(88) %this) unnamed_addr #7 align 2 {
entry:
  %mLocalBuffer = getelementptr inbounds i8, ptr %this, i64 24
  store ptr %mLocalBuffer, ptr %this, align 8
  %mpEnd = getelementptr inbounds i8, ptr %this, i64 8
  store ptr %mLocalBuffer, ptr %mpEnd, align 8
  %mpCapacity = getelementptr inbounds i8, ptr %this, i64 16
  %add.ptr = getelementptr inbounds i8, ptr %this, i64 88
  store ptr %add.ptr, ptr %mpCapacity, align 8
  ret void
}